target datalayout = "e-m:e-p270:32:32-p271:32:32-p272:64:64-i64:64-i128:128-f80:128-n8:16:32:64-S128"
target triple = "x86_64-pc-linux-gnu"

%struct.ScratchBuf = type { [65536 x i8], i32 }
%struct.ParseContext_ = type { %struct.TokenData, i32, %union.SourceSpan, %union.SourceSpan, ptr, %struct.Lexer }
%struct.TokenData = type { ptr, i64, %union.anon.86 }
%union.anon.86 = type { %struct.anon.89 }
%struct.anon.89 = type { %struct.Int128_, i8 }
%struct.Int128_ = type { i64, i64 }
%union.SourceSpan = type { i64 }
%struct.Lexer = type { ptr, ptr, ptr, ptr, i32, i32, ptr, ptr, ptr, %struct.TokenData, %union.SourceSpan, i32, i32 }
%struct.anon.0 = type { i16, i8, i8, i32 }

@scratch_buffer = external global %struct.ScratchBuf, align 4
@.str.66 = private unnamed_addr constant [69 x i8] c"The module path cannot contain a reserved keyword, try another name.\00", align 1
@.str.67 = private unnamed_addr constant [84 x i8] c"The elements of a module path must consist of only lower case letters, 0-9 and '_'.\00", align 1
@.str.68 = private unnamed_addr constant [68 x i8] c"Each '::' must be followed by a regular lower case sub module name.\00", align 1
@.str.69 = private unnamed_addr constant [3 x i8] c"::\00", align 1

; Function Attrs: nounwind uwtable
define internal i64 @extend_span_with_token(i64 %0, i64 %1) #0 {
  %3 = alloca %union.SourceSpan, align 8
  %4 = alloca %union.SourceSpan, align 8
  %5 = alloca %union.SourceSpan, align 8
  %6 = getelementptr inbounds %union.SourceSpan, ptr %4, i32 0, i32 0
  store i64 %0, ptr %6, align 8
  %7 = getelementptr inbounds %union.SourceSpan, ptr %5, i32 0, i32 0
  store i64 %1, ptr %7, align 8
  %8 = getelementptr inbounds %struct.anon.0, ptr %4, i32 0, i32 3
  %9 = load i32, ptr %8, align 4
  %10 = getelementptr inbounds %struct.anon.0, ptr %5, i32 0, i32 3
  %11 = load i32, ptr %10, align 4
  %12 = icmp ne i32 %9, %11
  br i1 %12, label %13, label %14

13:                                               ; preds = %2
  call void @llvm.memcpy.p0.p0.i64(ptr align 8 %3, ptr align 8 %4, i64 8, i1 false)
  br label %28

14:                                               ; preds = %2
  %15 = getelementptr inbounds %struct.anon.0, ptr %5, i32 0, i32 2
  %16 = load i8, ptr %15, align 1
  %17 = zext i8 %16 to i32
  %18 = getelementptr inbounds %struct.anon.0, ptr %5, i32 0, i32 1
  %19 = load i8, ptr %18, align 2
  %20 = zext i8 %19 to i32
  %21 = add nsw i32 %17, %20
  %22 = getelementptr inbounds %struct.anon.0, ptr %4, i32 0, i32 2
  %23 = load i8, ptr %22, align 1
  %24 = zext i8 %23 to i32
  %25 = sub nsw i32 %21, %24
  %26 = trunc i32 %25 to i8
  %27 = getelementptr inbounds %struct.anon.0, ptr %4, i32 0, i32 1
  store i8 %26, ptr %27, align 2
  call void @llvm.memcpy.p0.p0.i64(ptr align 8 %3, ptr align 8 %4, i64 8, i1 false)
  br label %28

28:                                               ; preds = %14, %13
  %29 = getelementptr inbounds %union.SourceSpan, ptr %3, i32 0, i32 0
  %30 = load i64, ptr %29, align 8
  ret i64 %30
}

; Function Attrs: nounwind uwtable
define internal ptr @parse_module_path(ptr noundef %0) #0 {
  %2 = alloca ptr, align 8
  %3 = alloca i1, align 1
  %4 = alloca i32, align 4
  %5 = alloca i32, align 4
  %6 = alloca ptr, align 8
  %7 = alloca ptr, align 8
  %8 = alloca %union.SourceSpan, align 8
  %9 = alloca ptr, align 8
  %10 = alloca %union.SourceSpan, align 8
  store ptr %0, ptr %7, align 8
  call void @scratch_buffer_clear()
  %11 = load ptr, ptr %7, align 8
  %12 = getelementptr inbounds %struct.ParseContext_, ptr %11, i32 0, i32 2
  call void @llvm.memcpy.p0.p0.i64(ptr align 8 %8, ptr align 8 %12, i64 8, i1 false)
  br label %13

13:                                               ; preds = %68, %1
  %14 = load ptr, ptr %7, align 8
  store ptr %14, ptr %2, align 8
  %15 = load ptr, ptr %2, align 8
  %16 = getelementptr inbounds %struct.TokenData, ptr %15, i32 0, i32 2
  %17 = load ptr, ptr %16, align 8
  store ptr %17, ptr %9, align 8
  %18 = load ptr, ptr %7, align 8
  %19 = call zeroext i1 @try_consume(ptr noundef %18, i32 noundef 64)
  br i1 %19, label %55, label %20

20:                                               ; preds = %13
  %21 = load ptr, ptr %7, align 8
  %22 = getelementptr inbounds %struct.ParseContext_, ptr %21, i32 0, i32 1
  %23 = load i32, ptr %22, align 8
  store i32 %23, ptr %5, align 4
  %24 = load i32, ptr %5, align 4
  %25 = icmp uge i32 %24, 82
  br i1 %25, label %26, label %29

26:                                               ; preds = %20
  %27 = load i32, ptr %5, align 4
  %28 = icmp ule i32 %27, 144
  br label %29

29:                                               ; preds = %26, %20
  %30 = phi i1 [ false, %20 ], [ %28, %26 ]
  br i1 %30, label %31, label %36

31:                                               ; preds = %29
  %32 = load ptr, ptr %7, align 8
  %33 = getelementptr inbounds %struct.ParseContext_, ptr %32, i32 0, i32 2
  %34 = getelementptr inbounds %union.SourceSpan, ptr %33, i32 0, i32 0
  %35 = load i64, ptr %34, align 8
  call void (i64, ptr, ...) @sema_error_at(i64 %35, ptr noundef @.str.66)
  store ptr null, ptr %6, align 8
  br label %75

36:                                               ; preds = %29
  %37 = load ptr, ptr %7, align 8
  %38 = getelementptr inbounds %struct.ParseContext_, ptr %37, i32 0, i32 1
  %39 = load i32, ptr %38, align 8
  store i32 %39, ptr %4, align 4
  %40 = load i32, ptr %4, align 4
  switch i32 %40, label %42 [
    i32 66, label %41
    i32 64, label %41
    i32 65, label %41
  ]

41:                                               ; preds = %36, %36, %36
  store i1 true, ptr %3, align 1
  br label %43

42:                                               ; preds = %36
  store i1 false, ptr %3, align 1
  br label %43

43:                                               ; preds = %42, %41
  %44 = load i1, ptr %3, align 1
  br i1 %44, label %45, label %50

45:                                               ; preds = %43
  %46 = load ptr, ptr %7, align 8
  %47 = getelementptr inbounds %struct.ParseContext_, ptr %46, i32 0, i32 2
  %48 = getelementptr inbounds %union.SourceSpan, ptr %47, i32 0, i32 0
  %49 = load i64, ptr %48, align 8
  call void (i64, ptr, ...) @sema_error_at(i64 %49, ptr noundef @.str.67)
  store ptr null, ptr %6, align 8
  br label %75

50:                                               ; preds = %43
  %51 = load ptr, ptr %7, align 8
  %52 = getelementptr inbounds %struct.ParseContext_, ptr %51, i32 0, i32 2
  %53 = getelementptr inbounds %union.SourceSpan, ptr %52, i32 0, i32 0
  %54 = load i64, ptr %53, align 8
  call void (i64, ptr, ...) @sema_error_at(i64 %54, ptr noundef @.str.68)
  store ptr null, ptr %6, align 8
  br label %75

55:                                               ; preds = %13
  %56 = load ptr, ptr %9, align 8
  call void @scratch_buffer_append(ptr noundef %56)
  %57 = load ptr, ptr %7, align 8
  %58 = call zeroext i1 @try_consume(ptr noundef %57, i32 noundef 58)
  br i1 %58, label %68, label %59

59:                                               ; preds = %55
  %60 = load ptr, ptr %7, align 8
  %61 = getelementptr inbounds %struct.ParseContext_, ptr %60, i32 0, i32 3
  %62 = getelementptr inbounds %union.SourceSpan, ptr %8, i32 0, i32 0
  %63 = load i64, ptr %62, align 8
  %64 = getelementptr inbounds %union.SourceSpan, ptr %61, i32 0, i32 0
  %65 = load i64, ptr %64, align 8
  %66 = call i64 @extend_span_with_token(i64 %63, i64 %65)
  %67 = getelementptr inbounds %union.SourceSpan, ptr %10, i32 0, i32 0
  store i64 %66, ptr %67, align 8
  call void @llvm.memcpy.p0.p0.i64(ptr align 8 %8, ptr align 8 %10, i64 8, i1 false)
  br label %69

68:                                               ; preds = %55
  call void @scratch_buffer_append(ptr noundef @.str.69)
  br label %13

69:                                               ; preds = %59
  %70 = call ptr @scratch_buffer_to_string()
  %71 = load i32, ptr getelementptr inbounds (%struct.ScratchBuf, ptr @scratch_buffer, i32 0, i32 1), align 4
  %72 = getelementptr inbounds %union.SourceSpan, ptr %8, i32 0, i32 0
  %73 = load i64, ptr %72, align 8
  %74 = call ptr @path_create_from_string(ptr noundef %70, i32 noundef %71, i64 %73)
  store ptr %74, ptr %6, align 8
  br label %75

75:                                               ; preds = %69, %50, %45, %31
  %76 = load ptr, ptr %6, align 8
  ret ptr %76
}