; Function Attrs: nounwind uwtable
define internal fastcc ptr @parse_module_path(ptr noundef %0) unnamed_addr #0 {
  tail call void @scratch_buffer_clear() #8
  %2 = getelementptr inbounds i8, ptr %0, i64 48
  %.sroa.01.0.copyload = load i64, ptr %2, align 8
  %3 = getelementptr inbounds i8, ptr %0, i64 16
  %4 = load ptr, ptr %3, align 8
  %5 = tail call zeroext i1 @try_consume(ptr noundef nonnull %0, i32 noundef 64) #8
  br i1 %5, label %.lr.ph, label %._crit_edge

._crit_edge:                                      ; preds = %34, %1
  %6 = getelementptr inbounds i8, ptr %0, i64 40
  %7 = load i32, ptr %6, align 8
  %8 = add i32 %7, -82
  %9 = icmp ult i32 %8, 63
  br i1 %9, label %10, label %12

10:                                               ; preds = %._crit_edge
  %11 = load i64, ptr %2, align 8
  tail call void (i64, ptr, ...) @sema_error_at(i64 %11, ptr noundef nonnull @.str.66) #8
  br label %37

12:                                               ; preds = %._crit_edge
  %.off = add i32 %7, -64
  %switch = icmp ult i32 %.off, 3
  %13 = load i64, ptr %2, align 8
  br i1 %switch, label %14, label %15

14:                                               ; preds = %12
  tail call void (i64, ptr, ...) @sema_error_at(i64 %13, ptr noundef nonnull @.str.67) #8
  br label %37

15:                                               ; preds = %12
  tail call void (i64, ptr, ...) @sema_error_at(i64 %13, ptr noundef nonnull @.str.68) #8
  br label %37

.lr.ph:                                           ; preds = %1, %34
  %16 = phi ptr [ %35, %34 ], [ %4, %1 ]
  tail call void @scratch_buffer_append(ptr noundef %16) #8
  %17 = tail call zeroext i1 @try_consume(ptr noundef nonnull %0, i32 noundef 58) #8
  br i1 %17, label %34, label %18

18:                                               ; preds = %.lr.ph
  %19 = getelementptr inbounds i8, ptr %0, i64 56
  %20 = load i64, ptr %19, align 8
  %.not.unshifted.i = xor i64 %20, %.sroa.01.0.copyload
  %.not.i = icmp ult i64 %.not.unshifted.i, 4294967296
  br i1 %.not.i, label %22, label %21

21:                                               ; preds = %18
  %.sroa.33.0.extract.shift.i = lshr i64 %.sroa.01.0.copyload, 16
  br label %extend_span_with_token.exit

22:                                               ; preds = %18
  %.sroa.4.0.extract.shift.i = lshr i64 %.sroa.01.0.copyload, 24
  %23 = trunc i64 %20 to i32
  %24 = lshr i32 %23, 24
  %25 = lshr i32 %23, 16
  %26 = trunc i64 %.sroa.4.0.extract.shift.i to i32
  %27 = sub i32 %25, %26
  %28 = add i32 %27, %24
  %29 = zext i32 %28 to i64
  br label %extend_span_with_token.exit

extend_span_with_token.exit:                      ; preds = %21, %22
  %.sroa.311.0.i = phi i64 [ %.sroa.33.0.extract.shift.i, %21 ], [ %29, %22 ]
  %.sroa.311.0.insert.ext.i = shl nuw i64 %.sroa.311.0.i, 16
  %.sroa.311.0.insert.shift.i = and i64 %.sroa.311.0.insert.ext.i, 16711680
  %30 = and i64 %.sroa.01.0.copyload, -16711681
  %.sroa.010.0.insert.insert.i = or disjoint i64 %.sroa.311.0.insert.shift.i, %30
  %31 = tail call ptr @scratch_buffer_to_string() #8
  %32 = load i32, ptr getelementptr inbounds (%struct.ScratchBuf, ptr @scratch_buffer, i64 0, i32 1), align 4
  %33 = tail call ptr @path_create_from_string(ptr noundef %31, i32 noundef %32, i64 %.sroa.010.0.insert.insert.i) #8
  br label %37

34:                                               ; preds = %.lr.ph
  tail call void @scratch_buffer_append(ptr noundef nonnull @.str.69) #8
  %35 = load ptr, ptr %3, align 8
  %36 = tail call zeroext i1 @try_consume(ptr noundef nonnull %0, i32 noundef 64) #8
  br i1 %36, label %.lr.ph, label %._crit_edge

37:                                               ; preds = %extend_span_with_token.exit, %15, %14, %10
  %.018 = phi ptr [ %33, %extend_span_with_token.exit ], [ null, %10 ], [ null, %14 ], [ null, %15 ]
  ret ptr %.018
}